target datalayout = "e-m:e-p270:32:32-p271:32:32-p272:64:64-i64:64-i128:128-f80:128-n8:16:32:64-S128"
target triple = "x86_64-pc-linux-gnu"

%"class.lean::name" = type { %"class.lean::object_ref" }
%"class.lean::object_ref" = type { ptr }
%"struct.lean::rb_tree<lean::name, lean::name_quick_cmp>::node" = type { ptr }
%"class.__gnu_cxx::__normal_iterator" = type { ptr }
%class.anon.4 = type { ptr, ptr }
%"struct.std::_Vector_base" = type { %"struct.std::_Vector_base<lean::name, std::allocator<lean::name>>::_Vector_impl" }
%"struct.std::_Vector_base<lean::name, std::allocator<lean::name>>::_Vector_impl" = type { %"struct.std::_Vector_base<lean::name, std::allocator<lean::name>>::_Vector_impl_data" }
%"struct.std::_Vector_base<lean::name, std::allocator<lean::name>>::_Vector_impl_data" = type { ptr, ptr, ptr }
%"struct.lean::rb_tree<lean::name, lean::name_quick_cmp>::node_cell" = type { %"struct.lean::rb_tree<lean::name, lean::name_quick_cmp>::node", %"struct.lean::rb_tree<lean::name, lean::name_quick_cmp>::node", %"class.lean::name", i8, %"struct.std::atomic" }
%"struct.std::atomic" = type { %"struct.std::__atomic_base" }
%"struct.std::__atomic_base" = type { i32 }

; Function Attrs: mustprogress nounwind uwtable
define linkonce_odr hidden noundef nonnull align 8 dereferenceable(8) ptr @_ZNK9__gnu_cxx17__normal_iteratorIPKN4lean4nameESt6vectorIS2_SaIS2_EEE4baseEv(ptr noundef nonnull align 8 dereferenceable(8) %0) #4 comdat align 2 {
  %2 = alloca ptr, align 8
  store ptr %0, ptr %2, align 8, !tbaa !110
  %3 = load ptr, ptr %2, align 8
  %4 = getelementptr inbounds nuw %"class.__gnu_cxx::__normal_iterator", ptr %3, i32 0, i32 0
  ret ptr %4
}

; Function Attrs: mustprogress nounwind uwtable
define linkonce_odr hidden void @_ZN9__gnu_cxx17__normal_iteratorIPKN4lean4nameESt6vectorIS2_SaIS2_EEEC2ERKS4_(ptr noundef nonnull align 8 dereferenceable(8) %0, ptr noundef nonnull align 8 dereferenceable(8) %1) unnamed_addr #4 comdat align 2 {
  %3 = alloca ptr, align 8
  %4 = alloca ptr, align 8
  store ptr %0, ptr %3, align 8, !tbaa !110
  store ptr %1, ptr %4, align 8, !tbaa !114
  %5 = load ptr, ptr %3, align 8
  %6 = getelementptr inbounds nuw %"class.__gnu_cxx::__normal_iterator", ptr %5, i32 0, i32 0
  %7 = load ptr, ptr %4, align 8, !tbaa !114
  %8 = load ptr, ptr %7, align 8, !tbaa !3
  store ptr %8, ptr %6, align 8, !tbaa !112
  ret void
}

; Function Attrs: mustprogress nounwind uwtable
define linkonce_odr hidden noundef nonnull align 8 dereferenceable(8) ptr @_ZN9__gnu_cxx17__normal_iteratorIPKN4lean4nameESt6vectorIS2_SaIS2_EEEppEv(ptr noundef nonnull align 8 dereferenceable(8) %0) #4 comdat align 2 {
  %2 = alloca ptr, align 8
  store ptr %0, ptr %2, align 8, !tbaa !110
  %3 = load ptr, ptr %2, align 8
  %4 = getelementptr inbounds nuw %"class.__gnu_cxx::__normal_iterator", ptr %3, i32 0, i32 0
  %5 = load ptr, ptr %4, align 8, !tbaa !112
  %6 = getelementptr inbounds nuw %"class.lean::name", ptr %5, i32 1
  store ptr %6, ptr %4, align 8, !tbaa !112
  ret ptr %3
}

; Function Attrs: mustprogress nounwind uwtable
define linkonce_odr hidden noundef nonnull align 8 dereferenceable(8) ptr @_ZNK9__gnu_cxx17__normal_iteratorIPKN4lean4nameESt6vectorIS2_SaIS2_EEEdeEv(ptr noundef nonnull align 8 dereferenceable(8) %0) #4 comdat align 2 {
  %2 = alloca ptr, align 8
  store ptr %0, ptr %2, align 8, !tbaa !110
  %3 = load ptr, ptr %2, align 8
  %4 = getelementptr inbounds nuw %"class.__gnu_cxx::__normal_iterator", ptr %3, i32 0, i32 0
  %5 = load ptr, ptr %4, align 8, !tbaa !112
  ret ptr %5
}

; Function Attrs: inlinehint mustprogress nounwind uwtable
define linkonce_odr noundef zeroext i1 @_ZN9__gnu_cxxneIPKN4lean4nameESt6vectorIS2_SaIS2_EEEEbRKNS_17__normal_iteratorIT_T0_EESD_(ptr noundef nonnull align 8 dereferenceable(8) %0, ptr noundef nonnull align 8 dereferenceable(8) %1) #3 comdat {
  %3 = alloca ptr, align 8
  %4 = alloca ptr, align 8
  store ptr %0, ptr %3, align 8, !tbaa !110
  store ptr %1, ptr %4, align 8, !tbaa !110
  %5 = load ptr, ptr %3, align 8, !tbaa !110
  %6 = call noundef nonnull align 8 dereferenceable(8) ptr @_ZNK9__gnu_cxx17__normal_iteratorIPKN4lean4nameESt6vectorIS2_SaIS2_EEE4baseEv(ptr noundef nonnull align 8 dereferenceable(8) %5) #17
  %7 = load ptr, ptr %6, align 8, !tbaa !3
  %8 = load ptr, ptr %4, align 8, !tbaa !110
  %9 = call noundef nonnull align 8 dereferenceable(8) ptr @_ZNK9__gnu_cxx17__normal_iteratorIPKN4lean4nameESt6vectorIS2_SaIS2_EEE4baseEv(ptr noundef nonnull align 8 dereferenceable(8) %8) #17
  %10 = load ptr, ptr %9, align 8, !tbaa !3
  %11 = icmp ne ptr %7, %10
  ret i1 %11
}

; Function Attrs: mustprogress nounwind uwtable
define linkonce_odr hidden ptr @_ZNKSt6vectorIN4lean4nameESaIS1_EE3endEv(ptr noundef nonnull align 8 dereferenceable(24) %0) #4 comdat align 2 {
  %2 = alloca %"class.__gnu_cxx::__normal_iterator", align 8
  %3 = alloca ptr, align 8
  store ptr %0, ptr %3, align 8, !tbaa !18
  %4 = load ptr, ptr %3, align 8
  %5 = getelementptr inbounds nuw %"struct.std::_Vector_base", ptr %4, i32 0, i32 0
  %6 = getelementptr inbounds nuw %"struct.std::_Vector_base<lean::name, std::allocator<lean::name>>::_Vector_impl_data", ptr %5, i32 0, i32 1
  call void @_ZN9__gnu_cxx17__normal_iteratorIPKN4lean4nameESt6vectorIS2_SaIS2_EEEC2ERKS4_(ptr noundef nonnull align 8 dereferenceable(8) %2, ptr noundef nonnull align 8 dereferenceable(8) %6) #17
  %7 = getelementptr inbounds nuw %"class.__gnu_cxx::__normal_iterator", ptr %2, i32 0, i32 0
  %8 = load ptr, ptr %7, align 8
  ret ptr %8
}

; Function Attrs: mustprogress nounwind uwtable
define linkonce_odr hidden ptr @_ZNKSt6vectorIN4lean4nameESaIS1_EE5beginEv(ptr noundef nonnull align 8 dereferenceable(24) %0) #4 comdat align 2 {
  %2 = alloca %"class.__gnu_cxx::__normal_iterator", align 8
  %3 = alloca ptr, align 8
  store ptr %0, ptr %3, align 8, !tbaa !18
  %4 = load ptr, ptr %3, align 8
  %5 = getelementptr inbounds nuw %"struct.std::_Vector_base", ptr %4, i32 0, i32 0
  %6 = getelementptr inbounds nuw %"struct.std::_Vector_base<lean::name, std::allocator<lean::name>>::_Vector_impl_data", ptr %5, i32 0, i32 0
  call void @_ZN9__gnu_cxx17__normal_iteratorIPKN4lean4nameESt6vectorIS2_SaIS2_EEEC2ERKS4_(ptr noundef nonnull align 8 dereferenceable(8) %2, ptr noundef nonnull align 8 dereferenceable(8) %6) #17
  %7 = getelementptr inbounds nuw %"class.__gnu_cxx::__normal_iterator", ptr %2, i32 0, i32 0
  %8 = load ptr, ptr %7, align 8
  ret ptr %8
}

; Function Attrs: mustprogress uwtable
define internal noundef zeroext i1 @_ZN4leanL23is_trace_class_set_coreERKSt6vectorINS_4nameESaIS1_EERKS1_(ptr noundef nonnull align 8 dereferenceable(24) %0, ptr noundef nonnull align 8 dereferenceable(8) %1) #0 {
  %3 = alloca i1, align 1
  %4 = alloca ptr, align 8
  %5 = alloca ptr, align 8
  %6 = alloca ptr, align 8
  %7 = alloca %"class.__gnu_cxx::__normal_iterator", align 8
  %8 = alloca %"class.__gnu_cxx::__normal_iterator", align 8
  %9 = alloca i32, align 4
  %10 = alloca ptr, align 8
  store ptr %0, ptr %4, align 8, !tbaa !18
  store ptr %1, ptr %5, align 8, !tbaa !3
  call void @llvm.lifetime.start.p0(i64 8, ptr %6) #17
  %11 = load ptr, ptr %4, align 8, !tbaa !18
  store ptr %11, ptr %6, align 8, !tbaa !18
  call void @llvm.lifetime.start.p0(i64 8, ptr %7) #17
  %12 = load ptr, ptr %6, align 8, !tbaa !18
  %13 = call ptr @_ZNKSt6vectorIN4lean4nameESaIS1_EE5beginEv(ptr noundef nonnull align 8 dereferenceable(24) %12) #17
  %14 = getelementptr inbounds nuw %"class.__gnu_cxx::__normal_iterator", ptr %7, i32 0, i32 0
  store ptr %13, ptr %14, align 8
  call void @llvm.lifetime.start.p0(i64 8, ptr %8) #17
  %15 = load ptr, ptr %6, align 8, !tbaa !18
  %16 = call ptr @_ZNKSt6vectorIN4lean4nameESaIS1_EE3endEv(ptr noundef nonnull align 8 dereferenceable(24) %15) #17
  %17 = getelementptr inbounds nuw %"class.__gnu_cxx::__normal_iterator", ptr %8, i32 0, i32 0
  store ptr %16, ptr %17, align 8
  br label %18

18:                                               ; preds = %31, %2
  %19 = call noundef zeroext i1 @_ZN9__gnu_cxxneIPKN4lean4nameESt6vectorIS2_SaIS2_EEEEbRKNS_17__normal_iteratorIT_T0_EESD_(ptr noundef nonnull align 8 dereferenceable(8) %7, ptr noundef nonnull align 8 dereferenceable(8) %8) #17
  br i1 %19, label %21, label %20

20:                                               ; preds = %18
  store i32 2, ptr %9, align 4
  br label %33

21:                                               ; preds = %18
  call void @llvm.lifetime.start.p0(i64 8, ptr %10) #17
  %22 = call noundef nonnull align 8 dereferenceable(8) ptr @_ZNK9__gnu_cxx17__normal_iteratorIPKN4lean4nameESt6vectorIS2_SaIS2_EEEdeEv(ptr noundef nonnull align 8 dereferenceable(8) %7) #17
  store ptr %22, ptr %10, align 8, !tbaa !3
  %23 = load ptr, ptr %10, align 8, !tbaa !3
  %24 = load ptr, ptr %5, align 8, !tbaa !3
  %25 = call noundef zeroext i1 @_ZN4lean12is_prefix_ofERKNS_4nameES2_(ptr noundef nonnull align 8 dereferenceable(8) %23, ptr noundef nonnull align 8 dereferenceable(8) %24)
  br i1 %25, label %26, label %27

26:                                               ; preds = %21
  store i1 true, ptr %3, align 1
  store i32 1, ptr %9, align 4
  br label %28

27:                                               ; preds = %21
  store i32 0, ptr %9, align 4
  br label %28

28:                                               ; preds = %27, %26
  call void @llvm.lifetime.end.p0(i64 8, ptr %10) #17
  %29 = load i32, ptr %9, align 4
  switch i32 %29, label %33 [
    i32 0, label %30
  ]

30:                                               ; preds = %28
  br label %31

31:                                               ; preds = %30
  %32 = call noundef nonnull align 8 dereferenceable(8) ptr @_ZN9__gnu_cxx17__normal_iteratorIPKN4lean4nameESt6vectorIS2_SaIS2_EEEppEv(ptr noundef nonnull align 8 dereferenceable(8) %7) #17
  br label %18

33:                                               ; preds = %28, %20
  call void @llvm.lifetime.end.p0(i64 8, ptr %8) #17
  call void @llvm.lifetime.end.p0(i64 8, ptr %7) #17
  call void @llvm.lifetime.end.p0(i64 8, ptr %6) #17
  %34 = load i32, ptr %9, align 4
  switch i32 %34, label %38 [
    i32 2, label %35
    i32 1, label %36
  ]

35:                                               ; preds = %33
  store i1 false, ptr %3, align 1
  br label %36

36:                                               ; preds = %35, %33
  %37 = load i1, ptr %3, align 1
  ret i1 %37

38:                                               ; preds = %33
  unreachable
}

; Function Attrs: inlinehint mustprogress uwtable
define internal void @"_ZZN4leanL18is_trace_class_setERKSt6vectorINS_4nameESaIS1_EERKS1_ENK3$_0clES7_"(ptr noundef nonnull align 8 dereferenceable(16) %0, ptr noundef nonnull align 8 dereferenceable(8) %1) #7 align 2 {
  %3 = alloca ptr, align 8
  %4 = alloca ptr, align 8
  store ptr %0, ptr %3, align 8, !tbaa !48
  store ptr %1, ptr %4, align 8, !tbaa !3
  %5 = load ptr, ptr %3, align 8
  %6 = getelementptr inbounds nuw %class.anon.4, ptr %5, i32 0, i32 0
  %7 = load ptr, ptr %6, align 8, !tbaa !122
  %8 = load i8, ptr %7, align 1, !tbaa !20, !range !24, !noundef !25
  %9 = trunc i8 %8 to i1
  br i1 %9, label %18, label %10

10:                                               ; preds = %2
  %11 = getelementptr inbounds nuw %class.anon.4, ptr %5, i32 0, i32 1
  %12 = load ptr, ptr %11, align 8, !tbaa !124
  %13 = load ptr, ptr %4, align 8, !tbaa !3
  %14 = call noundef zeroext i1 @_ZN4leanL23is_trace_class_set_coreERKSt6vectorINS_4nameESaIS1_EERKS1_(ptr noundef nonnull align 8 dereferenceable(24) %12, ptr noundef nonnull align 8 dereferenceable(8) %13)
  br i1 %14, label %15, label %18

15:                                               ; preds = %10
  %16 = getelementptr inbounds nuw %class.anon.4, ptr %5, i32 0, i32 0
  %17 = load ptr, ptr %16, align 8, !tbaa !122
  store i8 1, ptr %17, align 1, !tbaa !20
  br label %18

18:                                               ; preds = %15, %10, %2
  ret void
}

; Function Attrs: mustprogress uwtable
define internal void @"_ZN4lean7rb_treeINS_4nameENS_14name_quick_cmpEE8for_eachIRZNS_L18is_trace_class_setERKSt6vectorIS1_SaIS1_EERKS1_E3$_0EEvOT_PKNS3_9node_cellE"(ptr noundef nonnull align 8 dereferenceable(16) %0, ptr noundef %1) #0 align 2 {
  %3 = alloca ptr, align 8
  %4 = alloca ptr, align 8
  store ptr %0, ptr %3, align 8, !tbaa !48
  store ptr %1, ptr %4, align 8, !tbaa !91
  %5 = load ptr, ptr %4, align 8, !tbaa !91
  %6 = icmp ne ptr %5, null
  br i1 %6, label %7, label %21

7:                                                ; preds = %2
  %8 = load ptr, ptr %3, align 8, !tbaa !48
  %9 = load ptr, ptr %4, align 8, !tbaa !91
  %10 = getelementptr inbounds nuw %"struct.lean::rb_tree<lean::name, lean::name_quick_cmp>::node_cell", ptr %9, i32 0, i32 0
  %11 = getelementptr inbounds nuw %"struct.lean::rb_tree<lean::name, lean::name_quick_cmp>::node", ptr %10, i32 0, i32 0
  %12 = load ptr, ptr %11, align 8, !tbaa !116
  call void @"_ZN4lean7rb_treeINS_4nameENS_14name_quick_cmpEE8for_eachIRZNS_L18is_trace_class_setERKSt6vectorIS1_SaIS1_EERKS1_E3$_0EEvOT_PKNS3_9node_cellE"(ptr noundef nonnull align 8 dereferenceable(16) %8, ptr noundef %12)
  %13 = load ptr, ptr %3, align 8, !tbaa !48
  %14 = load ptr, ptr %4, align 8, !tbaa !91
  %15 = getelementptr inbounds nuw %"struct.lean::rb_tree<lean::name, lean::name_quick_cmp>::node_cell", ptr %14, i32 0, i32 2
  call void @"_ZZN4leanL18is_trace_class_setERKSt6vectorINS_4nameESaIS1_EERKS1_ENK3$_0clES7_"(ptr noundef nonnull align 8 dereferenceable(16) %13, ptr noundef nonnull align 8 dereferenceable(8) %15)
  %16 = load ptr, ptr %3, align 8, !tbaa !48
  %17 = load ptr, ptr %4, align 8, !tbaa !91
  %18 = getelementptr inbounds nuw %"struct.lean::rb_tree<lean::name, lean::name_quick_cmp>::node_cell", ptr %17, i32 0, i32 1
  %19 = getelementptr inbounds nuw %"struct.lean::rb_tree<lean::name, lean::name_quick_cmp>::node", ptr %18, i32 0, i32 0
  %20 = load ptr, ptr %19, align 8, !tbaa !121
  call void @"_ZN4lean7rb_treeINS_4nameENS_14name_quick_cmpEE8for_eachIRZNS_L18is_trace_class_setERKSt6vectorIS1_SaIS1_EERKS1_E3$_0EEvOT_PKNS3_9node_cellE"(ptr noundef nonnull align 8 dereferenceable(16) %16, ptr noundef %20)
  br label %21

21:                                               ; preds = %7, %2
  ret void
}