; Function Attrs: mustprogress uwtable
define internal fastcc void @"_ZN4lean7rb_treeINS_4nameENS_14name_quick_cmpEE8for_eachIRZNS_L18is_trace_class_setERKSt6vectorIS1_SaIS1_EERKS1_E3$_0EEvOT_PKNS3_9node_cellE"(ptr noundef nonnull readonly align 8 captures(none) dereferenceable(16) %0, ptr noundef %1) unnamed_addr #0 align 2 {
  %.not8 = icmp eq ptr %1, null
  br i1 %.not8, label %tailrecurse._crit_edge, label %.lr.ph

.lr.ph:                                           ; preds = %2
  %3 = getelementptr inbounds nuw i8, ptr %0, i64 8
  br label %4

4:                                                ; preds = %.lr.ph, %"_ZZN4leanL18is_trace_class_setERKSt6vectorINS_4nameESaIS1_EERKS1_ENK3$_0clES7_.exit"
  %.tr79 = phi ptr [ %1, %.lr.ph ], [ %18, %"_ZZN4leanL18is_trace_class_setERKSt6vectorINS_4nameESaIS1_EERKS1_ENK3$_0clES7_.exit" ]
  %5 = load ptr, ptr %.tr79, align 8, !tbaa !123
  tail call fastcc void @"_ZN4lean7rb_treeINS_4nameENS_14name_quick_cmpEE8for_eachIRZNS_L18is_trace_class_setERKSt6vectorIS1_SaIS1_EERKS1_E3$_0EEvOT_PKNS3_9node_cellE"(ptr noundef nonnull align 8 dereferenceable(16) %0, ptr noundef %5)
  %6 = getelementptr inbounds nuw i8, ptr %.tr79, i64 16
  %7 = load ptr, ptr %0, align 8, !tbaa !124
  %8 = load i8, ptr %7, align 1, !tbaa !60, !range !30, !noundef !31
  %9 = trunc nuw i8 %8 to i1
  br i1 %9, label %"_ZZN4leanL18is_trace_class_setERKSt6vectorINS_4nameESaIS1_EERKS1_ENK3$_0clES7_.exit", label %10

10:                                               ; preds = %4
  %11 = load ptr, ptr %3, align 8, !tbaa !126
  %.val.i = load ptr, ptr %11, align 8, !tbaa !58
  %12 = getelementptr i8, ptr %11, i64 8
  %.val2.i = load ptr, ptr %12, align 8, !tbaa !58
  %.not4.not.i.i = icmp eq ptr %.val.i, %.val2.i
  br i1 %.not4.not.i.i, label %"_ZZN4leanL18is_trace_class_setERKSt6vectorINS_4nameESaIS1_EERKS1_ENK3$_0clES7_.exit", label %.lr.ph.i.i

13:                                               ; preds = %.lr.ph.i.i
  %14 = getelementptr inbounds nuw i8, ptr %.sroa.01.05.i.i, i64 8
  %.not.not.i.i = icmp eq ptr %14, %.val2.i
  br i1 %.not.not.i.i, label %"_ZZN4leanL18is_trace_class_setERKSt6vectorINS_4nameESaIS1_EERKS1_ENK3$_0clES7_.exit", label %.lr.ph.i.i

.lr.ph.i.i:                                       ; preds = %10, %13
  %.sroa.01.05.i.i = phi ptr [ %14, %13 ], [ %.val.i, %10 ]
  %15 = tail call noundef zeroext i1 @_ZN4lean12is_prefix_ofERKNS_4nameES2_(ptr noundef nonnull align 8 dereferenceable(8) %.sroa.01.05.i.i, ptr noundef nonnull align 8 dereferenceable(8) %6)
  br i1 %15, label %_ZN4leanL23is_trace_class_set_coreERKSt6vectorINS_4nameESaIS1_EERKS1_.exit.i, label %13

_ZN4leanL23is_trace_class_set_coreERKSt6vectorINS_4nameESaIS1_EERKS1_.exit.i: ; preds = %.lr.ph.i.i
  %16 = load ptr, ptr %0, align 8, !tbaa !124
  store i8 1, ptr %16, align 1, !tbaa !60
  br label %"_ZZN4leanL18is_trace_class_setERKSt6vectorINS_4nameESaIS1_EERKS1_ENK3$_0clES7_.exit"

"_ZZN4leanL18is_trace_class_setERKSt6vectorINS_4nameESaIS1_EERKS1_ENK3$_0clES7_.exit": ; preds = %13, %4, %10, %_ZN4leanL23is_trace_class_set_coreERKSt6vectorINS_4nameESaIS1_EERKS1_.exit.i
  %17 = getelementptr inbounds nuw i8, ptr %.tr79, i64 8
  %18 = load ptr, ptr %17, align 8, !tbaa !127
  %.not = icmp eq ptr %18, null
  br i1 %.not, label %tailrecurse._crit_edge, label %4

tailrecurse._crit_edge:                           ; preds = %"_ZZN4leanL18is_trace_class_setERKSt6vectorINS_4nameESaIS1_EERKS1_ENK3$_0clES7_.exit", %2
  ret void
}